target datalayout = "e-m:e-p270:32:32-p271:32:32-p272:64:64-i64:64-i128:128-f80:128-n8:16:32:64-S128"
target triple = "x86_64-pc-linux-gnu"

@TopMemoryContext = external global ptr, align 8
@MaxBackends = external global i32, align 4
@visitedProcs = internal global ptr null, align 8
@deadlockDetails = internal global ptr null, align 8
@topoProcs = internal global ptr null, align 8
@beforeConstraints = internal global ptr null, align 8
@afterConstraints = internal global ptr null, align 8
@waitOrders = internal global ptr null, align 8
@waitOrderProcs = internal global ptr null, align 8
@maxCurConstraints = internal global i32 0, align 4
@curConstraints = internal global ptr null, align 8
@maxPossibleConstraints = internal global i32 0, align 4
@possibleConstraints = internal global ptr null, align 8
@CurrentMemoryContext = external global ptr, align 8

; Function Attrs: inlinehint nounwind uwtable
define internal ptr @MemoryContextSwitchTo(ptr noundef %0) #2 {
  %2 = alloca ptr, align 8
  %3 = alloca ptr, align 8
  store ptr %0, ptr %2, align 8
  call void @llvm.lifetime.start.p0(i64 8, ptr %3) #8
  %4 = load ptr, ptr @CurrentMemoryContext, align 8
  store ptr %4, ptr %3, align 8
  %5 = load ptr, ptr %2, align 8
  store ptr %5, ptr @CurrentMemoryContext, align 8
  %6 = load ptr, ptr %3, align 8
  call void @llvm.lifetime.end.p0(i64 8, ptr %3) #8
  ret ptr %6
}

; Function Attrs: nounwind uwtable
define dso_local void @InitDeadLockChecking() #0 {
  %1 = alloca ptr, align 8
  call void @llvm.lifetime.start.p0(i64 8, ptr %1) #8
  %2 = load ptr, ptr @TopMemoryContext, align 8
  %3 = call ptr @MemoryContextSwitchTo(ptr noundef %2)
  store ptr %3, ptr %1, align 8
  %4 = load i32, ptr @MaxBackends, align 4
  %5 = sext i32 %4 to i64
  %6 = mul i64 %5, 8
  %7 = call ptr @palloc(i64 noundef %6)
  store ptr %7, ptr @visitedProcs, align 8
  %8 = load i32, ptr @MaxBackends, align 4
  %9 = sext i32 %8 to i64
  %10 = mul i64 %9, 24
  %11 = call ptr @palloc(i64 noundef %10)
  store ptr %11, ptr @deadlockDetails, align 8
  %12 = load ptr, ptr @visitedProcs, align 8
  store ptr %12, ptr @topoProcs, align 8
  %13 = load i32, ptr @MaxBackends, align 4
  %14 = sext i32 %13 to i64
  %15 = mul i64 %14, 4
  %16 = call ptr @palloc(i64 noundef %15)
  store ptr %16, ptr @beforeConstraints, align 8
  %17 = load i32, ptr @MaxBackends, align 4
  %18 = sext i32 %17 to i64
  %19 = mul i64 %18, 4
  %20 = call ptr @palloc(i64 noundef %19)
  store ptr %20, ptr @afterConstraints, align 8
  %21 = load i32, ptr @MaxBackends, align 4
  %22 = sdiv i32 %21, 2
  %23 = sext i32 %22 to i64
  %24 = mul i64 %23, 24
  %25 = call ptr @palloc(i64 noundef %24)
  store ptr %25, ptr @waitOrders, align 8
  %26 = load i32, ptr @MaxBackends, align 4
  %27 = sext i32 %26 to i64
  %28 = mul i64 %27, 8
  %29 = call ptr @palloc(i64 noundef %28)
  store ptr %29, ptr @waitOrderProcs, align 8
  %30 = load i32, ptr @MaxBackends, align 4
  store i32 %30, ptr @maxCurConstraints, align 4
  %31 = load i32, ptr @maxCurConstraints, align 4
  %32 = sext i32 %31 to i64
  %33 = mul i64 %32, 32
  %34 = call ptr @palloc(i64 noundef %33)
  store ptr %34, ptr @curConstraints, align 8
  %35 = load i32, ptr @MaxBackends, align 4
  %36 = mul i32 %35, 4
  store i32 %36, ptr @maxPossibleConstraints, align 4
  %37 = load i32, ptr @maxPossibleConstraints, align 4
  %38 = sext i32 %37 to i64
  %39 = mul i64 %38, 32
  %40 = call ptr @palloc(i64 noundef %39)
  store ptr %40, ptr @possibleConstraints, align 8
  %41 = load ptr, ptr %1, align 8
  %42 = call ptr @MemoryContextSwitchTo(ptr noundef %41)
  call void @llvm.lifetime.end.p0(i64 8, ptr %1) #8
  ret void
}