; Function Attrs: nounwind uwtable
define dso_local void @InitDeadLockChecking() local_unnamed_addr #0 {
  %1 = load ptr, ptr @TopMemoryContext, align 8
  %2 = load ptr, ptr @CurrentMemoryContext, align 8
  store ptr %1, ptr @CurrentMemoryContext, align 8
  %3 = load i32, ptr @MaxBackends, align 4
  %4 = sext i32 %3 to i64
  %5 = shl nsw i64 %4, 3
  %6 = tail call ptr @palloc(i64 noundef %5) #11
  store ptr %6, ptr @visitedProcs, align 8
  %7 = load i32, ptr @MaxBackends, align 4
  %8 = sext i32 %7 to i64
  %9 = mul nsw i64 %8, 24
  %10 = tail call ptr @palloc(i64 noundef %9) #11
  store ptr %10, ptr @deadlockDetails, align 8
  %11 = load ptr, ptr @visitedProcs, align 8
  store ptr %11, ptr @topoProcs, align 8
  %12 = load i32, ptr @MaxBackends, align 4
  %13 = sext i32 %12 to i64
  %14 = shl nsw i64 %13, 2
  %15 = tail call ptr @palloc(i64 noundef %14) #11
  store ptr %15, ptr @beforeConstraints, align 8
  %16 = load i32, ptr @MaxBackends, align 4
  %17 = sext i32 %16 to i64
  %18 = shl nsw i64 %17, 2
  %19 = tail call ptr @palloc(i64 noundef %18) #11
  store ptr %19, ptr @afterConstraints, align 8
  %20 = load i32, ptr @MaxBackends, align 4
  %21 = sdiv i32 %20, 2
  %22 = sext i32 %21 to i64
  %23 = mul nsw i64 %22, 24
  %24 = tail call ptr @palloc(i64 noundef %23) #11
  store ptr %24, ptr @waitOrders, align 8
  %25 = load i32, ptr @MaxBackends, align 4
  %26 = sext i32 %25 to i64
  %27 = shl nsw i64 %26, 3
  %28 = tail call ptr @palloc(i64 noundef %27) #11
  store ptr %28, ptr @waitOrderProcs, align 8
  %29 = load i32, ptr @MaxBackends, align 4
  store i32 %29, ptr @maxCurConstraints, align 4
  %30 = sext i32 %29 to i64
  %31 = shl nsw i64 %30, 5
  %32 = tail call ptr @palloc(i64 noundef %31) #11
  store ptr %32, ptr @curConstraints, align 8
  %33 = load i32, ptr @MaxBackends, align 4
  %34 = shl i32 %33, 2
  store i32 %34, ptr @maxPossibleConstraints, align 4
  %35 = sext i32 %34 to i64
  %36 = shl nsw i64 %35, 5
  %37 = tail call ptr @palloc(i64 noundef %36) #11
  store ptr %37, ptr @possibleConstraints, align 8
  store ptr %2, ptr @CurrentMemoryContext, align 8
  ret void
}